target datalayout = "e-m:e-p270:32:32-p271:32:32-p272:64:64-i64:64-i128:128-f80:128-n8:16:32:64-S128"
target triple = "x86_64-pc-linux-gnu"

%struct.ggml_tallocr = type { ptr, ptr, i64, i64 }

; Function Attrs: nounwind uwtable
define internal i64 @aligned_offset(ptr noundef %0, i64 noundef %1, i64 noundef %2) #0 {
  %4 = alloca ptr, align 8
  %5 = alloca i64, align 8
  %6 = alloca i64, align 8
  %7 = alloca i64, align 8
  store ptr %0, ptr %4, align 8, !tbaa !8
  store i64 %1, ptr %5, align 8, !tbaa !9
  store i64 %2, ptr %6, align 8, !tbaa !9
  call void @llvm.lifetime.start.p0(i64 8, ptr %7) #11
  %8 = load i64, ptr %6, align 8, !tbaa !9
  %9 = load ptr, ptr %4, align 8, !tbaa !8
  %10 = ptrtoint ptr %9 to i64
  %11 = load i64, ptr %5, align 8, !tbaa !9
  %12 = add i64 %10, %11
  %13 = load i64, ptr %6, align 8, !tbaa !9
  %14 = urem i64 %12, %13
  %15 = sub i64 %8, %14
  %16 = load i64, ptr %6, align 8, !tbaa !9
  %17 = urem i64 %15, %16
  store i64 %17, ptr %7, align 8, !tbaa !9
  %18 = load i64, ptr %5, align 8, !tbaa !9
  %19 = load i64, ptr %7, align 8, !tbaa !9
  %20 = add i64 %18, %19
  call void @llvm.lifetime.end.p0(i64 8, ptr %7) #11
  ret i64 %20
}

; Function Attrs: nounwind uwtable
define void @ggml_tallocr_new(ptr dead_on_unwind noalias writable sret(%struct.ggml_tallocr) align 8 %0, ptr noundef %1) #0 {
  %3 = alloca ptr, align 8
  %4 = alloca ptr, align 8
  %5 = alloca i64, align 8
  store ptr %1, ptr %3, align 8, !tbaa !3
  call void @llvm.lifetime.start.p0(i64 8, ptr %4) #11
  %6 = load ptr, ptr %3, align 8, !tbaa !3
  %7 = call ptr @ggml_backend_buffer_get_base(ptr noundef %6)
  store ptr %7, ptr %4, align 8, !tbaa !8
  call void @llvm.lifetime.start.p0(i64 8, ptr %5) #11
  %8 = load ptr, ptr %3, align 8, !tbaa !3
  %9 = call i64 @ggml_backend_buffer_get_alignment(ptr noundef %8)
  store i64 %9, ptr %5, align 8, !tbaa !9
  %10 = getelementptr inbounds nuw %struct.ggml_tallocr, ptr %0, i32 0, i32 0
  %11 = load ptr, ptr %3, align 8, !tbaa !3
  store ptr %11, ptr %10, align 8, !tbaa !11
  %12 = getelementptr inbounds nuw %struct.ggml_tallocr, ptr %0, i32 0, i32 1
  %13 = load ptr, ptr %4, align 8, !tbaa !8
  store ptr %13, ptr %12, align 8, !tbaa !13
  %14 = getelementptr inbounds nuw %struct.ggml_tallocr, ptr %0, i32 0, i32 2
  %15 = load i64, ptr %5, align 8, !tbaa !9
  store i64 %15, ptr %14, align 8, !tbaa !14
  %16 = getelementptr inbounds nuw %struct.ggml_tallocr, ptr %0, i32 0, i32 3
  %17 = load ptr, ptr %4, align 8, !tbaa !8
  %18 = load i64, ptr %5, align 8, !tbaa !9
  %19 = call i64 @aligned_offset(ptr noundef %17, i64 noundef 0, i64 noundef %18)
  store i64 %19, ptr %16, align 8, !tbaa !15
  call void @llvm.lifetime.end.p0(i64 8, ptr %5) #11
  call void @llvm.lifetime.end.p0(i64 8, ptr %4) #11
  ret void
}