; Function Attrs: nounwind uwtable
define void @ggml_tallocr_new(ptr dead_on_unwind noalias writable writeonly sret(%struct.ggml_tallocr) align 8 captures(none) initializes((0, 32)) %0, ptr noundef %1) local_unnamed_addr #0 {
  %3 = tail call ptr @ggml_backend_buffer_get_base(ptr noundef %1) #12
  %4 = tail call i64 @ggml_backend_buffer_get_alignment(ptr noundef %1) #12
  store ptr %1, ptr %0, align 8, !tbaa !3
  %5 = getelementptr inbounds nuw i8, ptr %0, i64 8
  store ptr %3, ptr %5, align 8, !tbaa !10
  %6 = getelementptr inbounds nuw i8, ptr %0, i64 16
  store i64 %4, ptr %6, align 8, !tbaa !11
  %7 = getelementptr inbounds nuw i8, ptr %0, i64 24
  %8 = ptrtoint ptr %3 to i64
  %9 = urem i64 %8, %4
  %10 = sub i64 %4, %9
  %11 = urem i64 %10, %4
  store i64 %11, ptr %7, align 8, !tbaa !12
  ret void
}